; Function Attrs: nounwind uwtable
define dso_local i64 @numeric_cash(ptr noundef readonly captures(none) %0) local_unnamed_addr #0 {
  %2 = getelementptr inbounds nuw i8, ptr %0, i64 32
  %3 = load i64, ptr %2, align 8
  %4 = tail call ptr @PGLC_localeconv() #13
  %5 = getelementptr inbounds nuw i8, ptr %4, i64 81
  %6 = load i8, ptr %5, align 1
  %or.cond = icmp ugt i8 %6, 10
  %narrow = select i1 %or.cond, i8 2, i8 %6
  %spec.store.select = sext i8 %narrow to i32
  %7 = icmp sgt i8 %narrow, 0
  br i1 %7, label %.lr.ph, label %._crit_edge

.lr.ph:                                           ; preds = %1, %.lr.ph
  %.015 = phi i32 [ %9, %.lr.ph ], [ 0, %1 ]
  %.01314 = phi i64 [ %8, %.lr.ph ], [ 1, %1 ]
  %8 = mul i64 %.01314, 10
  %9 = add nuw nsw i32 %.015, 1
  %exitcond.not = icmp eq i32 %9, %spec.store.select
  br i1 %exitcond.not, label %._crit_edge, label %.lr.ph, !llvm.loop !19

._crit_edge:                                      ; preds = %.lr.ph, %1
  %.013.lcssa = phi i64 [ 1, %1 ], [ %8, %.lr.ph ]
  %10 = tail call ptr @int64_to_numeric(i64 noundef %.013.lcssa) #13
  %11 = ptrtoint ptr %10 to i64
  %12 = tail call i64 @DirectFunctionCall2Coll(ptr noundef nonnull @numeric_mul, i32 noundef 0, i64 noundef %3, i64 noundef %11) #13
  %13 = tail call i64 @DirectFunctionCall1Coll(ptr noundef nonnull @numeric_int8, i32 noundef 0, i64 noundef %12) #13
  ret i64 %13
}